; Function Attrs: mustprogress uwtable
define void @_ZN2cv4readERKNS_8FileNodeERdd(ptr noundef nonnull readonly align 8 captures(none) dereferenceable(24) %0, ptr noundef nonnull writeonly align 8 captures(none) dereferenceable(8) initializes((0, 8)) %1, double noundef %2) local_unnamed_addr #13 {
  store double %2, ptr %1, align 8, !tbaa !303
  %4 = load ptr, ptr %0, align 8, !tbaa !250
  %5 = icmp eq ptr %4, null
  br i1 %5, label %21, label %_ZNK2cv8FileNode3ptrEv.exit.i

_ZNK2cv8FileNode3ptrEv.exit.i:                    ; preds = %3
  %6 = getelementptr inbounds nuw i8, ptr %0, i64 8
  %7 = load i64, ptr %6, align 8, !tbaa !253
  %8 = getelementptr inbounds nuw i8, ptr %0, i64 16
  %9 = load i64, ptr %8, align 8, !tbaa !254
  %10 = tail call noundef ptr @_ZNK2cv11FileStorage4Impl10getNodePtrEmm(ptr noundef nonnull align 8 dereferenceable(700) %4, i64 noundef %7, i64 noundef %9)
  %.not.i = icmp eq ptr %10, null
  br i1 %.not.i, label %_ZNK2cv8FileNodecvdEv.exit, label %11

11:                                               ; preds = %_ZNK2cv8FileNode3ptrEv.exit.i
  %12 = load i8, ptr %10, align 1, !tbaa !5
  %13 = zext i8 %12 to i32
  %14 = and i32 %13, 7
  %15 = and i32 %13, 32
  %.not12.i = icmp eq i32 %15, 0
  %16 = select i1 %.not12.i, i64 1, i64 5
  %17 = getelementptr inbounds nuw i8, ptr %10, i64 %16
  switch i32 %14, label %_ZNK2cv8FileNodecvdEv.exit [
    i32 1, label %18
    i32 2, label %20
  ]

18:                                               ; preds = %11
  %.val.i = load i32, ptr %17, align 1
  %19 = sitofp i32 %.val.i to double
  br label %_ZNK2cv8FileNodecvdEv.exit

20:                                               ; preds = %11
  %.val13.i = load double, ptr %17, align 1
  br label %_ZNK2cv8FileNodecvdEv.exit

_ZNK2cv8FileNodecvdEv.exit:                       ; preds = %_ZNK2cv8FileNode3ptrEv.exit.i, %11, %18, %20
  %.0.i = phi double [ 0.000000e+00, %_ZNK2cv8FileNode3ptrEv.exit.i ], [ %19, %18 ], [ %.val13.i, %20 ], [ 0x7FEFFFFFFFFFFFFF, %11 ]
  store double %.0.i, ptr %1, align 8, !tbaa !303
  br label %21

21:                                               ; preds = %_ZNK2cv8FileNodecvdEv.exit, %3
  ret void
}